target datalayout = "e-m:e-p270:32:32-p271:32:32-p272:64:64-i64:64-i128:128-f80:128-n8:16:32:64-S128"
target triple = "x86_64-pc-linux-gnu"

@.str = private unnamed_addr constant [5 x i8] c"PATH\00", align 1
@.str.1 = private unnamed_addr constant [40 x i8] c"/usr/local/bin:/usr/ucb:/usr/bin:/bin:.\00", align 1

; Function Attrs: nounwind sspstrong uwtable
define dso_local ptr @dln_find_exe_r(ptr noundef %0, ptr noundef %1, ptr noundef %2, i64 noundef %3) #0 {
  %5 = alloca ptr, align 8
  %6 = alloca ptr, align 8
  %7 = alloca ptr, align 8
  %8 = alloca i64, align 8
  %9 = alloca ptr, align 8
  store ptr %0, ptr %5, align 8, !tbaa !7
  store ptr %1, ptr %6, align 8, !tbaa !7
  store ptr %2, ptr %7, align 8, !tbaa !7
  store i64 %3, ptr %8, align 8, !tbaa !12
  call void @llvm.lifetime.start.p0(i64 8, ptr %9) #7
  store ptr null, ptr %9, align 8, !tbaa !7
  %10 = load ptr, ptr %6, align 8, !tbaa !7
  %11 = icmp ne ptr %10, null
  br i1 %11, label %20, label %12

12:                                               ; preds = %4
  %13 = call ptr @getenv(ptr noundef @.str) #7
  store ptr %13, ptr %6, align 8, !tbaa !7
  %14 = load ptr, ptr %6, align 8, !tbaa !7
  %15 = icmp ne ptr %14, null
  br i1 %15, label %16, label %19

16:                                               ; preds = %12
  %17 = load ptr, ptr %6, align 8, !tbaa !7
  %18 = call noalias ptr @strdup(ptr noundef %17) #7
  store ptr %18, ptr %9, align 8, !tbaa !7
  store ptr %18, ptr %6, align 8, !tbaa !7
  br label %19

19:                                               ; preds = %16, %12
  br label %20

20:                                               ; preds = %19, %4
  %21 = load ptr, ptr %6, align 8, !tbaa !7
  %22 = icmp ne ptr %21, null
  br i1 %22, label %24, label %23

23:                                               ; preds = %20
  store ptr @.str.1, ptr %6, align 8, !tbaa !7
  br label %24

24:                                               ; preds = %23, %20
  %25 = load ptr, ptr %5, align 8, !tbaa !7
  %26 = load ptr, ptr %6, align 8, !tbaa !7
  %27 = load ptr, ptr %7, align 8, !tbaa !7
  %28 = load i64, ptr %8, align 8, !tbaa !12
  %29 = call ptr @dln_find_1(ptr noundef %25, ptr noundef %26, ptr noundef %27, i64 noundef %28, i32 noundef 1)
  store ptr %29, ptr %7, align 8, !tbaa !7
  %30 = load ptr, ptr %9, align 8, !tbaa !7
  call void @free(ptr noundef %30) #7
  %31 = load ptr, ptr %7, align 8, !tbaa !7
  call void @llvm.lifetime.end.p0(i64 8, ptr %9) #7
  ret ptr %31
}