; Function Attrs: nounwind sspstrong uwtable
define dso_local noundef ptr @dln_find_exe_r(ptr noundef %0, ptr noundef %1, ptr noundef %2, i64 noundef %3) local_unnamed_addr #0 {
  %.not = icmp eq ptr %1, null
  br i1 %.not, label %5, label %9

5:                                                ; preds = %4
  %6 = tail call ptr @getenv(ptr noundef nonnull @.str) #11
  %.not12 = icmp eq ptr %6, null
  br i1 %.not12, label %9, label %7

7:                                                ; preds = %5
  %8 = tail call noalias ptr @strdup(ptr noundef nonnull %6) #11
  br label %9

9:                                                ; preds = %5, %7, %4
  %.09 = phi ptr [ %1, %4 ], [ %8, %7 ], [ null, %5 ]
  %.0 = phi ptr [ null, %4 ], [ %8, %7 ], [ null, %5 ]
  %.not13 = icmp eq ptr %.09, null
  %spec.store.select = select i1 %.not13, ptr @.str.1, ptr %.09
  %10 = tail call fastcc ptr @dln_find_1(ptr noundef %0, ptr noundef nonnull %spec.store.select, ptr noundef %2, i64 noundef %3, i32 noundef 1)
  tail call void @free(ptr noundef %.0) #11
  ret ptr %10
}